; Function Attrs: mustprogress nofree norecurse nosync nounwind willreturn memory(write, argmem: readwrite, inaccessiblemem: none) uwtable
define void @_ZN3gmx12AtomsRemover7markAllEv(ptr noundef nonnull readonly align 8 captures(none) dereferenceable(24) %0) local_unnamed_addr #4 align 2 {
  %2 = load ptr, ptr %0, align 8, !tbaa !31
  %3 = getelementptr inbounds nuw i8, ptr %0, i64 8
  %4 = load ptr, ptr %3, align 8, !tbaa !31
  %.not5.i.i.i.i = icmp eq ptr %2, %4
  br i1 %.not5.i.i.i.i, label %_ZSt4fillIN9__gnu_cxx17__normal_iteratorIPcSt6vectorIcSaIcEEEEiEvT_S7_RKT0_.exit, label %.lr.ph.i.i.i.i

.lr.ph.i.i.i.i:                                   ; preds = %1
  %5 = ptrtoint ptr %4 to i64
  %6 = ptrtoint ptr %2 to i64
  %7 = sub i64 %5, %6
  tail call void @llvm.memset.p0.i64(ptr align 1 %2, i8 1, i64 %7, i1 false), !tbaa !47
  br label %_ZSt4fillIN9__gnu_cxx17__normal_iteratorIPcSt6vectorIcSaIcEEEEiEvT_S7_RKT0_.exit

_ZSt4fillIN9__gnu_cxx17__normal_iteratorIPcSt6vectorIcSaIcEEEEiEvT_S7_RKT0_.exit: ; preds = %1, %.lr.ph.i.i.i.i
  ret void
}